target datalayout = "e-m:e-p270:32:32-p271:32:32-p272:64:64-i64:64-i128:128-f80:128-n8:16:32:64-S128"
target triple = "x86_64-pc-linux-gnu"

@H5FD_init_g = external global i8, align 1
@H5_libterm_g = external global i8, align 1
@.str = private unnamed_addr constant [106 x i8] c"generated/home/dtcxzyw/WorkSpace/Projects/compilers/llvm-opt-benchmark/bench/hdf5/hdf5/src/H5FDsplitter.c\00", align 1
@H5E_VFL_g = external global i64, align 8
@H5E_ARGS_g = external global i64, align 8
@H5E_BADTYPE_g = external global i64, align 8
@H5P_CLS_FILE_ACCESS_ID_g = external global i64, align 8
@.str.10 = private unnamed_addr constant [32 x i8] c"not a file access property list\00", align 1
@__func__.H5FD__copy_plist = private unnamed_addr constant [17 x i8] c"H5FD__copy_plist\00", align 1
@.str.76 = private unnamed_addr constant [28 x i8] c"unable to get property list\00", align 1
@.str.77 = private unnamed_addr constant [41 x i8] c"unable to copy file access property list\00", align 1

; Function Attrs: nounwind uwtable
define internal i32 @H5FD__copy_plist(i64 noundef %0, ptr noundef %1) #0 {
  %3 = alloca i64, align 8
  %4 = alloca ptr, align 8
  %5 = alloca i32, align 4
  %6 = alloca ptr, align 8
  %7 = alloca i8, align 1
  store i64 %0, ptr %3, align 8, !tbaa !11
  store ptr %1, ptr %4, align 8, !tbaa !36
  call void @llvm.lifetime.start.p0(i64 4, ptr %5) #10
  store i32 0, ptr %5, align 4, !tbaa !3
  call void @llvm.lifetime.start.p0(i64 8, ptr %6) #10
  store ptr null, ptr %6, align 8, !tbaa !18
  call void @llvm.lifetime.start.p0(i64 1, ptr %7) #10
  store i8 0, ptr %7, align 1, !tbaa !7
  %8 = load i8, ptr @H5FD_init_g, align 1, !tbaa !7, !range !9, !noundef !10
  %9 = trunc i8 %8 to i1
  br i1 %9, label %14, label %10

10:                                               ; preds = %2
  %11 = load i8, ptr @H5_libterm_g, align 1, !tbaa !7, !range !9, !noundef !10
  %12 = trunc i8 %11 to i1
  %13 = xor i1 %12, true
  br label %14

14:                                               ; preds = %10, %2
  %15 = phi i1 [ true, %2 ], [ %13, %10 ]
  %16 = xor i1 %15, true
  %17 = xor i1 %16, true
  %18 = zext i1 %17 to i32
  %19 = sext i32 %18 to i64
  %20 = call i64 @llvm.expect.i64(i64 %19, i64 1)
  %21 = icmp ne i64 %20, 0
  br i1 %21, label %22, label %98

22:                                               ; preds = %14
  %23 = load i64, ptr %3, align 8, !tbaa !11
  %24 = load i64, ptr @H5P_CLS_FILE_ACCESS_ID_g, align 8, !tbaa !11
  %25 = call i32 @H5P_isa_class(i64 noundef %23, i64 noundef %24)
  %26 = icmp eq i32 0, %25
  br i1 %26, label %27, label %46

27:                                               ; preds = %22
  br label %28

28:                                               ; preds = %27
  br label %29

29:                                               ; preds = %28
  br label %30

30:                                               ; preds = %29
  %31 = load i64, ptr @H5E_ARGS_g, align 8, !tbaa !11
  %32 = load i64, ptr @H5E_BADTYPE_g, align 8, !tbaa !11
  %33 = call i32 (ptr, ptr, i32, i64, i64, ptr, ...) @H5E_printf_stack(ptr noundef @.str, ptr noundef @__func__.H5FD__copy_plist, i32 noundef 236, i64 noundef %31, i64 noundef %32, ptr noundef @.str.10)
  br label %34

34:                                               ; preds = %30
  br label %35

35:                                               ; preds = %34
  store i8 1, ptr %7, align 1, !tbaa !7
  %36 = load i8, ptr %7, align 1, !tbaa !7, !range !9, !noundef !10
  %37 = trunc i8 %36 to i1
  %38 = zext i1 %37 to i8
  store i8 %38, ptr %7, align 1, !tbaa !7
  br label %39

39:                                               ; preds = %35
  br label %40

40:                                               ; preds = %39
  br label %41

41:                                               ; preds = %40
  store i32 -1, ptr %5, align 4, !tbaa !3
  br label %97

42:                                               ; No predecessors!
  br label %43

43:                                               ; preds = %42
  br label %44

44:                                               ; preds = %43
  br label %45

45:                                               ; preds = %44
  br label %46

46:                                               ; preds = %45, %22
  %47 = load i64, ptr %3, align 8, !tbaa !11
  %48 = call ptr @H5I_object(i64 noundef %47)
  store ptr %48, ptr %6, align 8, !tbaa !18
  %49 = load ptr, ptr %6, align 8, !tbaa !18
  %50 = icmp eq ptr null, %49
  br i1 %50, label %51, label %70

51:                                               ; preds = %46
  br label %52

52:                                               ; preds = %51
  br label %53

53:                                               ; preds = %52
  br label %54

54:                                               ; preds = %53
  %55 = load i64, ptr @H5E_ARGS_g, align 8, !tbaa !11
  %56 = load i64, ptr @H5E_BADTYPE_g, align 8, !tbaa !11
  %57 = call i32 (ptr, ptr, i32, i64, i64, ptr, ...) @H5E_printf_stack(ptr noundef @.str, ptr noundef @__func__.H5FD__copy_plist, i32 noundef 240, i64 noundef %55, i64 noundef %56, ptr noundef @.str.76)
  br label %58

58:                                               ; preds = %54
  br label %59

59:                                               ; preds = %58
  store i8 1, ptr %7, align 1, !tbaa !7
  %60 = load i8, ptr %7, align 1, !tbaa !7, !range !9, !noundef !10
  %61 = trunc i8 %60 to i1
  %62 = zext i1 %61 to i8
  store i8 %62, ptr %7, align 1, !tbaa !7
  br label %63

63:                                               ; preds = %59
  br label %64

64:                                               ; preds = %63
  br label %65

65:                                               ; preds = %64
  store i32 -1, ptr %5, align 4, !tbaa !3
  br label %97

66:                                               ; No predecessors!
  br label %67

67:                                               ; preds = %66
  br label %68

68:                                               ; preds = %67
  br label %69

69:                                               ; preds = %68
  br label %70

70:                                               ; preds = %69, %46
  %71 = load ptr, ptr %6, align 8, !tbaa !18
  %72 = call i64 @H5P_copy_plist(ptr noundef %71, i1 noundef zeroext false)
  %73 = load ptr, ptr %4, align 8, !tbaa !36
  store i64 %72, ptr %73, align 8, !tbaa !11
  %74 = load ptr, ptr %4, align 8, !tbaa !36
  %75 = load i64, ptr %74, align 8, !tbaa !11
  %76 = icmp eq i64 -1, %75
  br i1 %76, label %77, label %96

77:                                               ; preds = %70
  br label %78

78:                                               ; preds = %77
  br label %79

79:                                               ; preds = %78
  br label %80

80:                                               ; preds = %79
  %81 = load i64, ptr @H5E_VFL_g, align 8, !tbaa !11
  %82 = load i64, ptr @H5E_BADTYPE_g, align 8, !tbaa !11
  %83 = call i32 (ptr, ptr, i32, i64, i64, ptr, ...) @H5E_printf_stack(ptr noundef @.str, ptr noundef @__func__.H5FD__copy_plist, i32 noundef 244, i64 noundef %81, i64 noundef %82, ptr noundef @.str.77)
  br label %84

84:                                               ; preds = %80
  br label %85

85:                                               ; preds = %84
  store i8 1, ptr %7, align 1, !tbaa !7
  %86 = load i8, ptr %7, align 1, !tbaa !7, !range !9, !noundef !10
  %87 = trunc i8 %86 to i1
  %88 = zext i1 %87 to i8
  store i8 %88, ptr %7, align 1, !tbaa !7
  br label %89

89:                                               ; preds = %85
  br label %90

90:                                               ; preds = %89
  br label %91

91:                                               ; preds = %90
  store i32 -1, ptr %5, align 4, !tbaa !3
  br label %97

92:                                               ; No predecessors!
  br label %93

93:                                               ; preds = %92
  br label %94

94:                                               ; preds = %93
  br label %95

95:                                               ; preds = %94
  br label %96

96:                                               ; preds = %95, %70
  br label %97

97:                                               ; preds = %96, %91, %65, %41
  br label %98

98:                                               ; preds = %97, %14
  %99 = load i32, ptr %5, align 4, !tbaa !3
  call void @llvm.lifetime.end.p0(i64 1, ptr %7) #10
  call void @llvm.lifetime.end.p0(i64 8, ptr %6) #10
  call void @llvm.lifetime.end.p0(i64 4, ptr %5) #10
  ret i32 %99
}