; Function Attrs: nounwind uwtable
define internal fastcc range(i32 -1, 1) i32 @H5FD__copy_plist(i64 noundef %0, ptr noundef nonnull writeonly captures(none) %1) unnamed_addr #0 {
  %3 = load i8, ptr @H5FD_init_g, align 1, !tbaa !3, !range !7, !noundef !8
  %4 = trunc nuw i8 %3 to i1
  %5 = load i8, ptr @H5_libterm_g, align 1, !range !7
  %6 = trunc nuw i8 %5 to i1
  %7 = xor i1 %6, true
  %8 = select i1 %4, i1 true, i1 %7
  br i1 %8, label %9, label %31, !prof !9

9:                                                ; preds = %2
  %10 = load i64, ptr @H5P_CLS_FILE_ACCESS_ID_g, align 8, !tbaa !10
  %11 = tail call i32 @H5P_isa_class(i64 noundef %0, i64 noundef %10) #12
  %12 = icmp eq i32 %11, 0
  br i1 %12, label %13, label %17

13:                                               ; preds = %9
  %14 = load i64, ptr @H5E_ARGS_g, align 8, !tbaa !10
  %15 = load i64, ptr @H5E_BADTYPE_g, align 8, !tbaa !10
  %16 = tail call i32 (ptr, ptr, i32, i64, i64, ptr, ...) @H5E_printf_stack(ptr noundef nonnull @.str, ptr noundef nonnull @__func__.H5FD__copy_plist, i32 noundef 236, i64 noundef %14, i64 noundef %15, ptr noundef nonnull @.str.10) #12
  br label %31

17:                                               ; preds = %9
  %18 = tail call ptr @H5I_object(i64 noundef %0) #12
  %19 = icmp eq ptr %18, null
  br i1 %19, label %20, label %24

20:                                               ; preds = %17
  %21 = load i64, ptr @H5E_ARGS_g, align 8, !tbaa !10
  %22 = load i64, ptr @H5E_BADTYPE_g, align 8, !tbaa !10
  %23 = tail call i32 (ptr, ptr, i32, i64, i64, ptr, ...) @H5E_printf_stack(ptr noundef nonnull @.str, ptr noundef nonnull @__func__.H5FD__copy_plist, i32 noundef 240, i64 noundef %21, i64 noundef %22, ptr noundef nonnull @.str.76) #12
  br label %31

24:                                               ; preds = %17
  %25 = tail call i64 @H5P_copy_plist(ptr noundef nonnull %18, i1 noundef zeroext false) #12
  store i64 %25, ptr %1, align 8, !tbaa !10
  %26 = icmp eq i64 %25, -1
  br i1 %26, label %27, label %31

27:                                               ; preds = %24
  %28 = load i64, ptr @H5E_VFL_g, align 8, !tbaa !10
  %29 = load i64, ptr @H5E_BADTYPE_g, align 8, !tbaa !10
  %30 = tail call i32 (ptr, ptr, i32, i64, i64, ptr, ...) @H5E_printf_stack(ptr noundef nonnull @.str, ptr noundef nonnull @__func__.H5FD__copy_plist, i32 noundef 244, i64 noundef %28, i64 noundef %29, ptr noundef nonnull @.str.77) #12
  br label %31

31:                                               ; preds = %13, %20, %27, %24, %2
  %.0 = phi i32 [ -1, %13 ], [ -1, %20 ], [ -1, %27 ], [ 0, %24 ], [ 0, %2 ]
  ret i32 %.0
}